target datalayout = "e-m:e-p270:32:32-p271:32:32-p272:64:64-i64:64-i128:128-f80:128-n8:16:32:64-S128"
target triple = "x86_64-pc-linux-gnu"

%struct.KINMemRec = type { double, ptr, ptr, double, double, i32, i32, i64, i64, i64, i64, i32, i32, i32, i32, i32, i32, i32, i32, i32, double, double, double, double, double, double, double, double, double, i32, double, i64, i64, i64, i64, i64, i64, i64, ptr, ptr, ptr, ptr, ptr, ptr, ptr, ptr, ptr, ptr, ptr, ptr, ptr, ptr, ptr, ptr, ptr, ptr, i64, i32, i32, i64, i64, i64, i64, ptr, ptr, ptr, ptr, i32, ptr, double, double, double, double, double, i32, double, double, double, i32, ptr, ptr, ptr, ptr, ptr, ptr }

; Function Attrs: nounwind uwtable
define internal void @KINForcingTerm(ptr noundef %0, double noundef %1) #0 {
  %3 = alloca ptr, align 8
  %4 = alloca double, align 8
  %5 = alloca double, align 8
  %6 = alloca double, align 8
  %7 = alloca double, align 8
  %8 = alloca double, align 8
  store ptr %0, ptr %3, align 8, !tbaa !3
  store double %1, ptr %4, align 8, !tbaa !8
  call void @llvm.lifetime.start.p0(i64 8, ptr %5) #8
  call void @llvm.lifetime.start.p0(i64 8, ptr %6) #8
  call void @llvm.lifetime.start.p0(i64 8, ptr %7) #8
  call void @llvm.lifetime.start.p0(i64 8, ptr %8) #8
  store double 9.000000e-01, ptr %5, align 8, !tbaa !8
  store double 1.000000e-04, ptr %6, align 8, !tbaa !8
  store double 5.000000e-01, ptr %7, align 8, !tbaa !8
  %9 = load ptr, ptr %3, align 8, !tbaa !3
  %10 = getelementptr inbounds nuw %struct.KINMemRec, ptr %9, i32 0, i32 11
  %11 = load i32, ptr %10, align 8, !tbaa !56
  %12 = icmp eq i32 %11, 1
  br i1 %12, label %13, label %50

13:                                               ; preds = %2
  %14 = load ptr, ptr %3, align 8, !tbaa !3
  %15 = getelementptr inbounds nuw %struct.KINMemRec, ptr %14, i32 0, i32 69
  %16 = load double, ptr %15, align 8, !tbaa !114
  %17 = load ptr, ptr %3, align 8, !tbaa !3
  %18 = getelementptr inbounds nuw %struct.KINMemRec, ptr %17, i32 0, i32 69
  %19 = load double, ptr %18, align 8, !tbaa !114
  %20 = load ptr, ptr %3, align 8, !tbaa !3
  %21 = getelementptr inbounds nuw %struct.KINMemRec, ptr %20, i32 0, i32 71
  %22 = load double, ptr %21, align 8, !tbaa !134
  %23 = fmul double 2.000000e+00, %22
  %24 = call double @llvm.fmuladd.f64(double %16, double %19, double %23)
  %25 = load ptr, ptr %3, align 8, !tbaa !3
  %26 = getelementptr inbounds nuw %struct.KINMemRec, ptr %25, i32 0, i32 72
  %27 = load double, ptr %26, align 8, !tbaa !135
  %28 = load ptr, ptr %3, align 8, !tbaa !3
  %29 = getelementptr inbounds nuw %struct.KINMemRec, ptr %28, i32 0, i32 72
  %30 = load double, ptr %29, align 8, !tbaa !135
  %31 = call double @llvm.fmuladd.f64(double %27, double %30, double %24)
  %32 = call double @SUNRsqrt(double noundef %31)
  store double %32, ptr %8, align 8, !tbaa !8
  %33 = load ptr, ptr %3, align 8, !tbaa !3
  %34 = getelementptr inbounds nuw %struct.KINMemRec, ptr %33, i32 0, i32 26
  %35 = load double, ptr %34, align 8, !tbaa !57
  %36 = load ptr, ptr %3, align 8, !tbaa !3
  %37 = getelementptr inbounds nuw %struct.KINMemRec, ptr %36, i32 0, i32 28
  %38 = load double, ptr %37, align 8, !tbaa !58
  %39 = call double @SUNRpowerR(double noundef %35, double noundef %38)
  store double %39, ptr %7, align 8, !tbaa !8
  %40 = load double, ptr %4, align 8, !tbaa !8
  %41 = load double, ptr %8, align 8, !tbaa !8
  %42 = fsub double %40, %41
  %43 = call double @SUNRabs(double noundef %42)
  %44 = load ptr, ptr %3, align 8, !tbaa !3
  %45 = getelementptr inbounds nuw %struct.KINMemRec, ptr %44, i32 0, i32 69
  %46 = load double, ptr %45, align 8, !tbaa !114
  %47 = fdiv double %43, %46
  %48 = load ptr, ptr %3, align 8, !tbaa !3
  %49 = getelementptr inbounds nuw %struct.KINMemRec, ptr %48, i32 0, i32 26
  store double %47, ptr %49, align 8, !tbaa !57
  br label %50

50:                                               ; preds = %13, %2
  %51 = load ptr, ptr %3, align 8, !tbaa !3
  %52 = getelementptr inbounds nuw %struct.KINMemRec, ptr %51, i32 0, i32 11
  %53 = load i32, ptr %52, align 8, !tbaa !56
  %54 = icmp eq i32 %53, 2
  br i1 %54, label %55, label %82

55:                                               ; preds = %50
  %56 = load ptr, ptr %3, align 8, !tbaa !3
  %57 = getelementptr inbounds nuw %struct.KINMemRec, ptr %56, i32 0, i32 27
  %58 = load double, ptr %57, align 8, !tbaa !59
  %59 = load ptr, ptr %3, align 8, !tbaa !3
  %60 = getelementptr inbounds nuw %struct.KINMemRec, ptr %59, i32 0, i32 26
  %61 = load double, ptr %60, align 8, !tbaa !57
  %62 = load ptr, ptr %3, align 8, !tbaa !3
  %63 = getelementptr inbounds nuw %struct.KINMemRec, ptr %62, i32 0, i32 28
  %64 = load double, ptr %63, align 8, !tbaa !58
  %65 = call double @SUNRpowerR(double noundef %61, double noundef %64)
  %66 = fmul double %58, %65
  store double %66, ptr %7, align 8, !tbaa !8
  %67 = load ptr, ptr %3, align 8, !tbaa !3
  %68 = getelementptr inbounds nuw %struct.KINMemRec, ptr %67, i32 0, i32 27
  %69 = load double, ptr %68, align 8, !tbaa !59
  %70 = load double, ptr %4, align 8, !tbaa !8
  %71 = load ptr, ptr %3, align 8, !tbaa !3
  %72 = getelementptr inbounds nuw %struct.KINMemRec, ptr %71, i32 0, i32 69
  %73 = load double, ptr %72, align 8, !tbaa !114
  %74 = fdiv double %70, %73
  %75 = load ptr, ptr %3, align 8, !tbaa !3
  %76 = getelementptr inbounds nuw %struct.KINMemRec, ptr %75, i32 0, i32 28
  %77 = load double, ptr %76, align 8, !tbaa !58
  %78 = call double @SUNRpowerR(double noundef %74, double noundef %77)
  %79 = fmul double %69, %78
  %80 = load ptr, ptr %3, align 8, !tbaa !3
  %81 = getelementptr inbounds nuw %struct.KINMemRec, ptr %80, i32 0, i32 26
  store double %79, ptr %81, align 8, !tbaa !57
  br label %82

82:                                               ; preds = %55, %50
  %83 = load double, ptr %7, align 8, !tbaa !8
  %84 = fcmp olt double %83, 1.000000e-01
  br i1 %84, label %85, label %86

85:                                               ; preds = %82
  store double 0.000000e+00, ptr %7, align 8, !tbaa !8
  br label %86

86:                                               ; preds = %85, %82
  %87 = load ptr, ptr %3, align 8, !tbaa !3
  %88 = getelementptr inbounds nuw %struct.KINMemRec, ptr %87, i32 0, i32 26
  %89 = load double, ptr %88, align 8, !tbaa !57
  %90 = load double, ptr %7, align 8, !tbaa !8
  %91 = fcmp ogt double %89, %90
  br i1 %91, label %92, label %96

92:                                               ; preds = %86
  %93 = load ptr, ptr %3, align 8, !tbaa !3
  %94 = getelementptr inbounds nuw %struct.KINMemRec, ptr %93, i32 0, i32 26
  %95 = load double, ptr %94, align 8, !tbaa !57
  br label %98

96:                                               ; preds = %86
  %97 = load double, ptr %7, align 8, !tbaa !8
  br label %98

98:                                               ; preds = %96, %92
  %99 = phi double [ %95, %92 ], [ %97, %96 ]
  %100 = load ptr, ptr %3, align 8, !tbaa !3
  %101 = getelementptr inbounds nuw %struct.KINMemRec, ptr %100, i32 0, i32 26
  store double %99, ptr %101, align 8, !tbaa !57
  %102 = load ptr, ptr %3, align 8, !tbaa !3
  %103 = getelementptr inbounds nuw %struct.KINMemRec, ptr %102, i32 0, i32 26
  %104 = load double, ptr %103, align 8, !tbaa !57
  %105 = load double, ptr %6, align 8, !tbaa !8
  %106 = fcmp ogt double %104, %105
  br i1 %106, label %107, label %111

107:                                              ; preds = %98
  %108 = load ptr, ptr %3, align 8, !tbaa !3
  %109 = getelementptr inbounds nuw %struct.KINMemRec, ptr %108, i32 0, i32 26
  %110 = load double, ptr %109, align 8, !tbaa !57
  br label %113

111:                                              ; preds = %98
  %112 = load double, ptr %6, align 8, !tbaa !8
  br label %113

113:                                              ; preds = %111, %107
  %114 = phi double [ %110, %107 ], [ %112, %111 ]
  %115 = load ptr, ptr %3, align 8, !tbaa !3
  %116 = getelementptr inbounds nuw %struct.KINMemRec, ptr %115, i32 0, i32 26
  store double %114, ptr %116, align 8, !tbaa !57
  %117 = load ptr, ptr %3, align 8, !tbaa !3
  %118 = getelementptr inbounds nuw %struct.KINMemRec, ptr %117, i32 0, i32 26
  %119 = load double, ptr %118, align 8, !tbaa !57
  %120 = load double, ptr %5, align 8, !tbaa !8
  %121 = fcmp olt double %119, %120
  br i1 %121, label %122, label %126

122:                                              ; preds = %113
  %123 = load ptr, ptr %3, align 8, !tbaa !3
  %124 = getelementptr inbounds nuw %struct.KINMemRec, ptr %123, i32 0, i32 26
  %125 = load double, ptr %124, align 8, !tbaa !57
  br label %128

126:                                              ; preds = %113
  %127 = load double, ptr %5, align 8, !tbaa !8
  br label %128

128:                                              ; preds = %126, %122
  %129 = phi double [ %125, %122 ], [ %127, %126 ]
  %130 = load ptr, ptr %3, align 8, !tbaa !3
  %131 = getelementptr inbounds nuw %struct.KINMemRec, ptr %130, i32 0, i32 26
  store double %129, ptr %131, align 8, !tbaa !57
  call void @llvm.lifetime.end.p0(i64 8, ptr %8) #8
  call void @llvm.lifetime.end.p0(i64 8, ptr %7) #8
  call void @llvm.lifetime.end.p0(i64 8, ptr %6) #8
  call void @llvm.lifetime.end.p0(i64 8, ptr %5) #8
  ret void
}