; Function Attrs: nounwind uwtable
define internal fastcc void @KINForcingTerm(ptr noundef nonnull captures(none) %0, double noundef %1) unnamed_addr #0 {
  %3 = getelementptr inbounds nuw i8, ptr %0, i64 80
  %4 = load i32, ptr %3, align 8, !tbaa !30
  %5 = icmp eq i32 %4, 1
  br i1 %5, label %6, label %26

6:                                                ; preds = %2
  %7 = getelementptr inbounds nuw i8, ptr %0, i64 504
  %8 = load double, ptr %7, align 8, !tbaa !86
  %9 = getelementptr inbounds nuw i8, ptr %0, i64 520
  %10 = load double, ptr %9, align 8, !tbaa !115
  %11 = fmul double %10, 2.000000e+00
  %12 = tail call double @llvm.fmuladd.f64(double %8, double %8, double %11)
  %13 = getelementptr inbounds nuw i8, ptr %0, i64 528
  %14 = load double, ptr %13, align 8, !tbaa !116
  %15 = tail call double @llvm.fmuladd.f64(double %14, double %14, double %12)
  %16 = tail call double @SUNRsqrt(double noundef %15) #14
  %17 = getelementptr inbounds nuw i8, ptr %0, i64 168
  %18 = load double, ptr %17, align 8, !tbaa !31
  %19 = getelementptr inbounds nuw i8, ptr %0, i64 184
  %20 = load double, ptr %19, align 8, !tbaa !32
  %21 = tail call double @SUNRpowerR(double noundef %18, double noundef %20) #14
  %22 = fsub double %1, %16
  %23 = tail call double @SUNRabs(double noundef %22) #14
  %24 = load double, ptr %7, align 8, !tbaa !86
  %25 = fdiv double %23, %24
  store double %25, ptr %17, align 8, !tbaa !31
  %.pr = load i32, ptr %3, align 8, !tbaa !30
  br label %26

26:                                               ; preds = %6, %2
  %27 = phi i32 [ %.pr, %6 ], [ %4, %2 ]
  %.0 = phi double [ %21, %6 ], [ 5.000000e-01, %2 ]
  %28 = icmp eq i32 %27, 2
  br i1 %28, label %29, label %._crit_edge

._crit_edge:                                      ; preds = %26
  %.phi.trans.insert = getelementptr inbounds nuw i8, ptr %0, i64 168
  %.pre = load double, ptr %.phi.trans.insert, align 8, !tbaa !31
  br label %45

29:                                               ; preds = %26
  %30 = getelementptr inbounds nuw i8, ptr %0, i64 176
  %31 = load double, ptr %30, align 8, !tbaa !33
  %32 = getelementptr inbounds nuw i8, ptr %0, i64 168
  %33 = load double, ptr %32, align 8, !tbaa !31
  %34 = getelementptr inbounds nuw i8, ptr %0, i64 184
  %35 = load double, ptr %34, align 8, !tbaa !32
  %36 = tail call double @SUNRpowerR(double noundef %33, double noundef %35) #14
  %37 = fmul double %31, %36
  %38 = load double, ptr %30, align 8, !tbaa !33
  %39 = getelementptr inbounds nuw i8, ptr %0, i64 504
  %40 = load double, ptr %39, align 8, !tbaa !86
  %41 = fdiv double %1, %40
  %42 = load double, ptr %34, align 8, !tbaa !32
  %43 = tail call double @SUNRpowerR(double noundef %41, double noundef %42) #14
  %44 = fmul double %38, %43
  br label %45

45:                                               ; preds = %._crit_edge, %29
  %46 = phi double [ %44, %29 ], [ %.pre, %._crit_edge ]
  %.1 = phi double [ %37, %29 ], [ %.0, %._crit_edge ]
  %47 = fcmp olt double %.1, 1.000000e-01
  %.2 = select i1 %47, double 0.000000e+00, double %.1
  %48 = getelementptr inbounds nuw i8, ptr %0, i64 168
  %49 = fcmp ogt double %46, %.2
  %50 = select i1 %49, double %46, double %.2
  %51 = fcmp ogt double %50, 1.000000e-04
  %52 = select i1 %51, double %50, double 1.000000e-04
  %53 = fcmp olt double %52, 9.000000e-01
  %54 = select i1 %53, double %52, double 9.000000e-01
  store double %54, ptr %48, align 8, !tbaa !31
  ret void
}